target datalayout = "e-m:e-p270:32:32-p271:32:32-p272:64:64-i64:64-i128:128-f80:128-n8:16:32:64-S128"
target triple = "x86_64-pc-linux-gnu"

; Function Attrs: nounwind uwtable
define hidden i32 @mbedtls_ecp_mul_restartable(ptr noundef %0, ptr noundef %1, ptr noundef %2, ptr noundef %3, ptr noundef %4, ptr noundef %5, ptr noundef %6) #0 {
  %8 = alloca i32, align 4
  %9 = alloca ptr, align 8
  %10 = alloca ptr, align 8
  %11 = alloca ptr, align 8
  %12 = alloca ptr, align 8
  %13 = alloca ptr, align 8
  %14 = alloca ptr, align 8
  %15 = alloca ptr, align 8
  store ptr %0, ptr %9, align 8, !tbaa !25
  store ptr %1, ptr %10, align 8, !tbaa !34
  store ptr %2, ptr %11, align 8, !tbaa !50
  store ptr %3, ptr %12, align 8, !tbaa !34
  store ptr %4, ptr %13, align 8, !tbaa !55
  store ptr %5, ptr %14, align 8, !tbaa !55
  store ptr %6, ptr %15, align 8, !tbaa !55
  %16 = load ptr, ptr %13, align 8, !tbaa !55
  %17 = icmp eq ptr %16, null
  br i1 %17, label %18, label %19

18:                                               ; preds = %7
  store i32 -20352, ptr %8, align 4
  br label %28

19:                                               ; preds = %7
  %20 = load ptr, ptr %9, align 8, !tbaa !25
  %21 = load ptr, ptr %10, align 8, !tbaa !34
  %22 = load ptr, ptr %11, align 8, !tbaa !50
  %23 = load ptr, ptr %12, align 8, !tbaa !34
  %24 = load ptr, ptr %13, align 8, !tbaa !55
  %25 = load ptr, ptr %14, align 8, !tbaa !55
  %26 = load ptr, ptr %15, align 8, !tbaa !55
  %27 = call i32 @ecp_mul_restartable_internal(ptr noundef %20, ptr noundef %21, ptr noundef %22, ptr noundef %23, ptr noundef %24, ptr noundef %25, ptr noundef %26)
  store i32 %27, ptr %8, align 4
  br label %28

28:                                               ; preds = %19, %18
  %29 = load i32, ptr %8, align 4
  ret i32 %29
}

; Function Attrs: nounwind uwtable
define hidden i32 @mbedtls_ecp_mul(ptr noundef %0, ptr noundef %1, ptr noundef %2, ptr noundef %3, ptr noundef %4, ptr noundef %5) #0 {
  %7 = alloca ptr, align 8
  %8 = alloca ptr, align 8
  %9 = alloca ptr, align 8
  %10 = alloca ptr, align 8
  %11 = alloca ptr, align 8
  %12 = alloca ptr, align 8
  store ptr %0, ptr %7, align 8, !tbaa !25
  store ptr %1, ptr %8, align 8, !tbaa !34
  store ptr %2, ptr %9, align 8, !tbaa !50
  store ptr %3, ptr %10, align 8, !tbaa !34
  store ptr %4, ptr %11, align 8, !tbaa !55
  store ptr %5, ptr %12, align 8, !tbaa !55
  %13 = load ptr, ptr %7, align 8, !tbaa !25
  %14 = load ptr, ptr %8, align 8, !tbaa !34
  %15 = load ptr, ptr %9, align 8, !tbaa !50
  %16 = load ptr, ptr %10, align 8, !tbaa !34
  %17 = load ptr, ptr %11, align 8, !tbaa !55
  %18 = load ptr, ptr %12, align 8, !tbaa !55
  %19 = call i32 @mbedtls_ecp_mul_restartable(ptr noundef %13, ptr noundef %14, ptr noundef %15, ptr noundef %16, ptr noundef %17, ptr noundef %18, ptr noundef null)
  ret i32 %19
}