; Function Attrs: nounwind uwtable
define hidden i32 @mbedtls_ecp_mul(ptr noundef %0, ptr noundef %1, ptr noundef %2, ptr noundef %3, ptr noundef %4, ptr noundef %5) local_unnamed_addr #7 {
  %7 = icmp eq ptr %4, null
  br i1 %7, label %mbedtls_ecp_mul_restartable.exit, label %8

8:                                                ; preds = %6
  %9 = tail call fastcc i32 @ecp_mul_restartable_internal(ptr noundef %0, ptr noundef %1, ptr noundef %2, ptr noundef %3, ptr noundef nonnull %4, ptr noundef %5)
  br label %mbedtls_ecp_mul_restartable.exit

mbedtls_ecp_mul_restartable.exit:                 ; preds = %6, %8
  %.0.i = phi i32 [ %9, %8 ], [ -20352, %6 ]
  ret i32 %.0.i
}